target datalayout = "e-m:e-p270:32:32-p271:32:32-p272:64:64-i64:64-i128:128-f80:128-n8:16:32:64-S128"
target triple = "x86_64-pc-linux-gnu"

%"class.std::__cxx11::basic_string" = type { %"struct.std::__cxx11::basic_string<char>::_Alloc_hider", i64, %union.anon }
%"struct.std::__cxx11::basic_string<char>::_Alloc_hider" = type { ptr }
%union.anon = type { i64, [8 x i8] }

; Function Attrs: mustprogress nounwind uwtable
define internal noundef i32 @_ZL15sockopt_invalidv() #1 {
  %1 = call ptr @__errno_location() #18
  store i32 22, ptr %1, align 4, !tbaa !17
  ret i32 -1
}

; Function Attrs: mustprogress nounwind uwtable
define available_externally noundef ptr @_ZNKSt7__cxx1112basic_stringIcSt11char_traitsIcESaIcEE7_M_dataEv(ptr noundef nonnull align 8 dereferenceable(32) %0) #1 align 2 {
  %2 = alloca ptr, align 8
  store ptr %0, ptr %2, align 8, !tbaa !9
  %3 = load ptr, ptr %2, align 8
  %4 = getelementptr inbounds nuw %"class.std::__cxx11::basic_string", ptr %3, i32 0, i32 0
  %5 = getelementptr inbounds nuw %"struct.std::__cxx11::basic_string<char>::_Alloc_hider", ptr %4, i32 0, i32 0
  %6 = load ptr, ptr %5, align 8, !tbaa !224
  ret ptr %6
}

; Function Attrs: mustprogress uwtable
define noundef i32 @_ZN3zmq13do_getsockoptEPvPmPKvm(ptr noundef %0, ptr noundef %1, ptr noundef %2, i64 noundef %3) #0 {
  %5 = alloca i32, align 4
  %6 = alloca ptr, align 8
  %7 = alloca ptr, align 8
  %8 = alloca ptr, align 8
  %9 = alloca i64, align 8
  store ptr %0, ptr %6, align 8, !tbaa !3
  store ptr %1, ptr %7, align 8, !tbaa !7
  store ptr %2, ptr %8, align 8, !tbaa !3
  store i64 %3, ptr %9, align 8, !tbaa !11
  %10 = load ptr, ptr %7, align 8, !tbaa !7
  %11 = load i64, ptr %10, align 8, !tbaa !11
  %12 = load i64, ptr %9, align 8, !tbaa !11
  %13 = icmp ult i64 %11, %12
  br i1 %13, label %14, label %16

14:                                               ; preds = %4
  %15 = call noundef i32 @_ZL15sockopt_invalidv()
  store i32 %15, ptr %5, align 4
  br label %29

16:                                               ; preds = %4
  %17 = load ptr, ptr %6, align 8, !tbaa !3
  %18 = load ptr, ptr %8, align 8, !tbaa !3
  %19 = load i64, ptr %9, align 8, !tbaa !11
  call void @llvm.memcpy.p0.p0.i64(ptr align 1 %17, ptr align 1 %18, i64 %19, i1 false)
  %20 = load ptr, ptr %6, align 8, !tbaa !3
  %21 = load i64, ptr %9, align 8, !tbaa !11
  %22 = getelementptr inbounds nuw i8, ptr %20, i64 %21
  %23 = load ptr, ptr %7, align 8, !tbaa !7
  %24 = load i64, ptr %23, align 8, !tbaa !11
  %25 = load i64, ptr %9, align 8, !tbaa !11
  %26 = sub i64 %24, %25
  call void @llvm.memset.p0.i64(ptr align 1 %22, i8 0, i64 %26, i1 false)
  %27 = load i64, ptr %9, align 8, !tbaa !11
  %28 = load ptr, ptr %7, align 8, !tbaa !7
  store i64 %27, ptr %28, align 8, !tbaa !11
  store i32 0, ptr %5, align 4
  br label %29

29:                                               ; preds = %16, %14
  %30 = load i32, ptr %5, align 4
  ret i32 %30
}

; Function Attrs: mustprogress nounwind uwtable
define available_externally noundef i64 @_ZNKSt7__cxx1112basic_stringIcSt11char_traitsIcESaIcEE4sizeEv(ptr noundef nonnull align 8 dereferenceable(32) %0) #1 align 2 {
  %2 = alloca ptr, align 8
  store ptr %0, ptr %2, align 8, !tbaa !9
  %3 = load ptr, ptr %2, align 8
  %4 = getelementptr inbounds nuw %"class.std::__cxx11::basic_string", ptr %3, i32 0, i32 1
  %5 = load i64, ptr %4, align 8, !tbaa !13
  ret i64 %5
}

; Function Attrs: mustprogress nounwind uwtable
define available_externally noundef ptr @_ZNKSt7__cxx1112basic_stringIcSt11char_traitsIcESaIcEE5c_strEv(ptr noundef nonnull align 8 dereferenceable(32) %0) #1 align 2 {
  %2 = alloca ptr, align 8
  store ptr %0, ptr %2, align 8, !tbaa !9
  %3 = load ptr, ptr %2, align 8
  %4 = call noundef ptr @_ZNKSt7__cxx1112basic_stringIcSt11char_traitsIcESaIcEE7_M_dataEv(ptr noundef nonnull align 8 dereferenceable(32) %3)
  ret ptr %4
}

; Function Attrs: mustprogress uwtable
define noundef i32 @_ZN3zmq13do_getsockoptEPvPmRKNSt7__cxx1112basic_stringIcSt11char_traitsIcESaIcEEE(ptr noundef %0, ptr noundef %1, ptr noundef nonnull align 8 dereferenceable(32) %2) #0 {
  %4 = alloca ptr, align 8
  %5 = alloca ptr, align 8
  %6 = alloca ptr, align 8
  store ptr %0, ptr %4, align 8, !tbaa !3
  store ptr %1, ptr %5, align 8, !tbaa !7
  store ptr %2, ptr %6, align 8, !tbaa !9
  %7 = load ptr, ptr %4, align 8, !tbaa !3
  %8 = load ptr, ptr %5, align 8, !tbaa !7
  %9 = load ptr, ptr %6, align 8, !tbaa !9
  %10 = call noundef ptr @_ZNKSt7__cxx1112basic_stringIcSt11char_traitsIcESaIcEE5c_strEv(ptr noundef nonnull align 8 dereferenceable(32) %9) #17
  %11 = load ptr, ptr %6, align 8, !tbaa !9
  %12 = call noundef i64 @_ZNKSt7__cxx1112basic_stringIcSt11char_traitsIcESaIcEE4sizeEv(ptr noundef nonnull align 8 dereferenceable(32) %11) #17
  %13 = add i64 %12, 1
  %14 = call noundef i32 @_ZN3zmq13do_getsockoptEPvPmPKvm(ptr noundef %7, ptr noundef %8, ptr noundef %10, i64 noundef %13)
  ret i32 %14
}