; Function Attrs: mustprogress nofree nosync nounwind willreturn memory(readwrite, inaccessiblemem: none) uwtable
define noundef range(i32 -1, 1) i32 @_ZN3zmq13do_getsockoptEPvPmRKNSt7__cxx1112basic_stringIcSt11char_traitsIcESaIcEEE(ptr noundef writeonly captures(none) %0, ptr noundef captures(none) %1, ptr noundef nonnull readonly align 8 captures(none) dereferenceable(32) %2) local_unnamed_addr #0 {
  %4 = getelementptr inbounds nuw i8, ptr %2, i64 8
  %5 = load i64, ptr %4, align 8, !tbaa !3
  %6 = add i64 %5, 1
  %7 = load i64, ptr %1, align 8, !tbaa !11
  %8 = icmp ult i64 %7, %6
  br i1 %8, label %9, label %11

9:                                                ; preds = %3
  %10 = tail call ptr @__errno_location() #22
  store i32 22, ptr %10, align 4, !tbaa !12
  br label %_ZN3zmq13do_getsockoptEPvPmPKvm.exit

11:                                               ; preds = %3
  %12 = load ptr, ptr %2, align 8, !tbaa !14
  tail call void @llvm.memcpy.p0.p0.i64(ptr align 1 %0, ptr readonly align 1 %12, i64 %6, i1 false)
  %13 = getelementptr inbounds nuw i8, ptr %0, i64 %6
  %14 = load i64, ptr %1, align 8, !tbaa !11
  %15 = sub i64 %14, %6
  tail call void @llvm.memset.p0.i64(ptr align 1 %13, i8 0, i64 %15, i1 false)
  store i64 %6, ptr %1, align 8, !tbaa !11
  br label %_ZN3zmq13do_getsockoptEPvPmPKvm.exit

_ZN3zmq13do_getsockoptEPvPmPKvm.exit:             ; preds = %9, %11
  %.0.i = phi i32 [ -1, %9 ], [ 0, %11 ]
  ret i32 %.0.i
}